; Function Attrs: mustprogress nofree norecurse nosync nounwind willreturn memory(write, argmem: readwrite, inaccessiblemem: none) uwtable
define internal range(i32 0, 2) i32 @_area_button_release_callback(ptr readnone captures(none) %0, ptr noundef readonly captures(none) %1, ptr noundef readonly captures(none) %2) #14 {
  %4 = getelementptr inbounds nuw i8, ptr %1, i64 52
  %5 = load i32, ptr %4, align 4, !tbaa !179
  %6 = icmp eq i32 %5, 1
  br i1 %6, label %7, label %11

7:                                                ; preds = %3
  %8 = getelementptr inbounds nuw i8, ptr %2, i64 704
  %9 = load ptr, ptr %8, align 16, !tbaa !6
  %10 = getelementptr inbounds nuw i8, ptr %9, i64 160
  store i32 0, ptr %10, align 8, !tbaa !148
  br label %11

11:                                               ; preds = %3, %7
  %.0 = phi i32 [ 1, %7 ], [ 0, %3 ]
  ret i32 %.0
}